target datalayout = "e-m:e-p270:32:32-p271:32:32-p272:64:64-i64:64-i128:128-f80:128-n8:16:32:64-S128"
target triple = "x86_64-pc-linux-gnu"

%struct.AVFilterContext = type { ptr, ptr, ptr, ptr, ptr, i32, ptr, ptr, i32, ptr, ptr, i32, i32, ptr, ptr, ptr, ptr, i32, ptr, i32, i32 }
%struct.SSIMContext = type { ptr, %struct.FFFrameSync, ptr, ptr, i32, i32, i32, i64, [4 x double], double, [4 x i8], [4 x double], [4 x i8], [4 x i32], [4 x i32], ptr, i32, ptr, ptr, %struct.SSIMDSPContext }
%struct.FFFrameSync = type { ptr, ptr, i32, %struct.AVRational, i64, ptr, ptr, i32, i32, i8, i8, ptr, i32, i32, i32, i32 }
%struct.AVRational = type { i32, i32 }
%struct.SSIMDSPContext = type { ptr, ptr }

@stdout = external global ptr, align 8
@.str.24 = private unnamed_addr constant [12 x i8] c" %c:%f (%f)\00", align 1
@.str.25 = private unnamed_addr constant [20 x i8] c"SSIM%s All:%f (%f)\0A\00", align 1

; Function Attrs: nounwind uwtable
define internal double @ssim_db(double noundef %0, double noundef %1) #0 {
  %3 = alloca double, align 8
  %4 = alloca double, align 8
  store double %0, ptr %3, align 8, !tbaa !43
  store double %1, ptr %4, align 8, !tbaa !43
  %5 = load double, ptr %4, align 8, !tbaa !43
  %6 = load double, ptr %3, align 8, !tbaa !43
  %7 = fsub nsz double %5, %6
  %8 = call nsz double @llvm.fabs.f64(double %7)
  %9 = fcmp nsz ogt double %8, 1.000000e-09
  br i1 %9, label %10, label %18

10:                                               ; preds = %2
  %11 = load double, ptr %4, align 8, !tbaa !43
  %12 = load double, ptr %4, align 8, !tbaa !43
  %13 = load double, ptr %3, align 8, !tbaa !43
  %14 = fsub nsz double %12, %13
  %15 = fdiv nsz double %11, %14
  %16 = call nsz double @llvm.log10.f64(double %15)
  %17 = fmul nsz double 1.000000e+01, %16
  br label %19

18:                                               ; preds = %2
  br label %19

19:                                               ; preds = %18, %10
  %20 = phi nsz double [ %17, %10 ], [ 0x7FF0000000000000, %18 ]
  ret double %20
}

; Function Attrs: cold nounwind optsize uwtable
define internal void @uninit(ptr noundef %0) #1 {
  %2 = alloca ptr, align 8
  %3 = alloca ptr, align 8
  %4 = alloca [256 x i8], align 16
  %5 = alloca i32, align 4
  %6 = alloca i32, align 4
  %7 = alloca i32, align 4
  %8 = alloca i32, align 4
  store ptr %0, ptr %2, align 8, !tbaa !4
  call void @llvm.lifetime.start.p0(i64 8, ptr %3) #12
  %9 = load ptr, ptr %2, align 8, !tbaa !4
  %10 = getelementptr inbounds nuw %struct.AVFilterContext, ptr %9, i32 0, i32 9
  %11 = load ptr, ptr %10, align 8, !tbaa !9
  store ptr %11, ptr %3, align 8, !tbaa !22
  %12 = load ptr, ptr %3, align 8, !tbaa !22
  %13 = getelementptr inbounds nuw %struct.SSIMContext, ptr %12, i32 0, i32 7
  %14 = load i64, ptr %13, align 8, !tbaa !39
  %15 = icmp ugt i64 %14, 0
  br i1 %15, label %16, label %95

16:                                               ; preds = %1
  call void @llvm.lifetime.start.p0(i64 256, ptr %4) #12
  %17 = getelementptr inbounds [256 x i8], ptr %4, i64 0, i64 0
  store i8 0, ptr %17, align 16, !tbaa !40
  call void @llvm.lifetime.start.p0(i64 4, ptr %5) #12
  store i32 0, ptr %5, align 4, !tbaa !37
  br label %18

18:                                               ; preds = %73, %16
  %19 = load i32, ptr %5, align 4, !tbaa !37
  %20 = load ptr, ptr %3, align 8, !tbaa !22
  %21 = getelementptr inbounds nuw %struct.SSIMContext, ptr %20, i32 0, i32 4
  %22 = load i32, ptr %21, align 8, !tbaa !41
  %23 = icmp slt i32 %19, %22
  br i1 %23, label %25, label %24

24:                                               ; preds = %18
  call void @llvm.lifetime.end.p0(i64 4, ptr %5) #12
  br label %76

25:                                               ; preds = %18
  call void @llvm.lifetime.start.p0(i64 4, ptr %6) #12
  %26 = load ptr, ptr %3, align 8, !tbaa !22
  %27 = getelementptr inbounds nuw %struct.SSIMContext, ptr %26, i32 0, i32 16
  %28 = load i32, ptr %27, align 8, !tbaa !42
  %29 = icmp ne i32 %28, 0
  br i1 %29, label %30, label %38

30:                                               ; preds = %25
  %31 = load ptr, ptr %3, align 8, !tbaa !22
  %32 = getelementptr inbounds nuw %struct.SSIMContext, ptr %31, i32 0, i32 12
  %33 = load i32, ptr %5, align 4, !tbaa !37
  %34 = sext i32 %33 to i64
  %35 = getelementptr inbounds [4 x i8], ptr %32, i64 0, i64 %34
  %36 = load i8, ptr %35, align 1, !tbaa !40
  %37 = zext i8 %36 to i32
  br label %40

38:                                               ; preds = %25
  %39 = load i32, ptr %5, align 4, !tbaa !37
  br label %40

40:                                               ; preds = %38, %30
  %41 = phi i32 [ %37, %30 ], [ %39, %38 ]
  store i32 %41, ptr %6, align 4, !tbaa !37
  %42 = getelementptr inbounds [256 x i8], ptr %4, i64 0, i64 0
  %43 = load ptr, ptr %3, align 8, !tbaa !22
  %44 = getelementptr inbounds nuw %struct.SSIMContext, ptr %43, i32 0, i32 10
  %45 = load i32, ptr %5, align 4, !tbaa !37
  %46 = sext i32 %45 to i64
  %47 = getelementptr inbounds [4 x i8], ptr %44, i64 0, i64 %46
  %48 = load i8, ptr %47, align 1, !tbaa !40
  %49 = sext i8 %48 to i32
  %50 = load ptr, ptr %3, align 8, !tbaa !22
  %51 = getelementptr inbounds nuw %struct.SSIMContext, ptr %50, i32 0, i32 8
  %52 = load i32, ptr %6, align 4, !tbaa !37
  %53 = sext i32 %52 to i64
  %54 = getelementptr inbounds [4 x double], ptr %51, i64 0, i64 %53
  %55 = load double, ptr %54, align 8, !tbaa !43
  %56 = load ptr, ptr %3, align 8, !tbaa !22
  %57 = getelementptr inbounds nuw %struct.SSIMContext, ptr %56, i32 0, i32 7
  %58 = load i64, ptr %57, align 8, !tbaa !39
  %59 = uitofp i64 %58 to double
  %60 = fdiv nsz double %55, %59
  %61 = load ptr, ptr %3, align 8, !tbaa !22
  %62 = getelementptr inbounds nuw %struct.SSIMContext, ptr %61, i32 0, i32 8
  %63 = load i32, ptr %6, align 4, !tbaa !37
  %64 = sext i32 %63 to i64
  %65 = getelementptr inbounds [4 x double], ptr %62, i64 0, i64 %64
  %66 = load double, ptr %65, align 8, !tbaa !43
  %67 = load ptr, ptr %3, align 8, !tbaa !22
  %68 = getelementptr inbounds nuw %struct.SSIMContext, ptr %67, i32 0, i32 7
  %69 = load i64, ptr %68, align 8, !tbaa !39
  %70 = uitofp i64 %69 to double
  %71 = call nsz double @ssim_db(double noundef %66, double noundef %70)
  %72 = call i64 (ptr, i64, ptr, ...) @av_strlcatf(ptr noundef %42, i64 noundef 256, ptr noundef @.str.24, i32 noundef %49, double noundef %60, double noundef %71)
  call void @llvm.lifetime.end.p0(i64 4, ptr %6) #12
  br label %73

73:                                               ; preds = %40
  %74 = load i32, ptr %5, align 4, !tbaa !37
  %75 = add nsw i32 %74, 1
  store i32 %75, ptr %5, align 4, !tbaa !37
  br label %18, !llvm.loop !44

76:                                               ; preds = %24
  %77 = load ptr, ptr %2, align 8, !tbaa !4
  %78 = getelementptr inbounds [256 x i8], ptr %4, i64 0, i64 0
  %79 = load ptr, ptr %3, align 8, !tbaa !22
  %80 = getelementptr inbounds nuw %struct.SSIMContext, ptr %79, i32 0, i32 9
  %81 = load double, ptr %80, align 8, !tbaa !46
  %82 = load ptr, ptr %3, align 8, !tbaa !22
  %83 = getelementptr inbounds nuw %struct.SSIMContext, ptr %82, i32 0, i32 7
  %84 = load i64, ptr %83, align 8, !tbaa !39
  %85 = uitofp i64 %84 to double
  %86 = fdiv nsz double %81, %85
  %87 = load ptr, ptr %3, align 8, !tbaa !22
  %88 = getelementptr inbounds nuw %struct.SSIMContext, ptr %87, i32 0, i32 9
  %89 = load double, ptr %88, align 8, !tbaa !46
  %90 = load ptr, ptr %3, align 8, !tbaa !22
  %91 = getelementptr inbounds nuw %struct.SSIMContext, ptr %90, i32 0, i32 7
  %92 = load i64, ptr %91, align 8, !tbaa !39
  %93 = uitofp i64 %92 to double
  %94 = call nsz double @ssim_db(double noundef %89, double noundef %93)
  call void (ptr, i32, ptr, ...) @av_log(ptr noundef %77, i32 noundef 32, ptr noundef @.str.25, ptr noundef %78, double noundef %86, double noundef %94)
  call void @llvm.lifetime.end.p0(i64 256, ptr %4) #12
  br label %95

95:                                               ; preds = %76, %1
  %96 = load ptr, ptr %3, align 8, !tbaa !22
  %97 = getelementptr inbounds nuw %struct.SSIMContext, ptr %96, i32 0, i32 1
  call void @ff_framesync_uninit(ptr noundef %97)
  %98 = load ptr, ptr %3, align 8, !tbaa !22
  %99 = getelementptr inbounds nuw %struct.SSIMContext, ptr %98, i32 0, i32 2
  %100 = load ptr, ptr %99, align 8, !tbaa !36
  %101 = icmp ne ptr %100, null
  br i1 %101, label %102, label %113

102:                                              ; preds = %95
  %103 = load ptr, ptr %3, align 8, !tbaa !22
  %104 = getelementptr inbounds nuw %struct.SSIMContext, ptr %103, i32 0, i32 2
  %105 = load ptr, ptr %104, align 8, !tbaa !36
  %106 = load ptr, ptr @stdout, align 8, !tbaa !35
  %107 = icmp ne ptr %105, %106
  br i1 %107, label %108, label %113

108:                                              ; preds = %102
  %109 = load ptr, ptr %3, align 8, !tbaa !22
  %110 = getelementptr inbounds nuw %struct.SSIMContext, ptr %109, i32 0, i32 2
  %111 = load ptr, ptr %110, align 8, !tbaa !36
  %112 = call i32 @fclose(ptr noundef %111)
  br label %113

113:                                              ; preds = %108, %102, %95
  call void @llvm.lifetime.start.p0(i64 4, ptr %7) #12
  store i32 0, ptr %7, align 4, !tbaa !37
  br label %114

114:                                              ; preds = %135, %113
  %115 = load i32, ptr %7, align 4, !tbaa !37
  %116 = load ptr, ptr %3, align 8, !tbaa !22
  %117 = getelementptr inbounds nuw %struct.SSIMContext, ptr %116, i32 0, i32 5
  %118 = load i32, ptr %117, align 4, !tbaa !47
  %119 = icmp slt i32 %115, %118
  br i1 %119, label %120, label %125

120:                                              ; preds = %114
  %121 = load ptr, ptr %3, align 8, !tbaa !22
  %122 = getelementptr inbounds nuw %struct.SSIMContext, ptr %121, i32 0, i32 17
  %123 = load ptr, ptr %122, align 8, !tbaa !48
  %124 = icmp ne ptr %123, null
  br label %125

125:                                              ; preds = %120, %114
  %126 = phi i1 [ false, %114 ], [ %124, %120 ]
  br i1 %126, label %128, label %127

127:                                              ; preds = %125
  call void @llvm.lifetime.end.p0(i64 4, ptr %7) #12
  br label %138

128:                                              ; preds = %125
  %129 = load ptr, ptr %3, align 8, !tbaa !22
  %130 = getelementptr inbounds nuw %struct.SSIMContext, ptr %129, i32 0, i32 17
  %131 = load ptr, ptr %130, align 8, !tbaa !48
  %132 = load i32, ptr %7, align 4, !tbaa !37
  %133 = sext i32 %132 to i64
  %134 = getelementptr inbounds ptr, ptr %131, i64 %133
  call void @av_freep(ptr noundef %134)
  br label %135

135:                                              ; preds = %128
  %136 = load i32, ptr %7, align 4, !tbaa !37
  %137 = add nsw i32 %136, 1
  store i32 %137, ptr %7, align 4, !tbaa !37
  br label %114, !llvm.loop !49

138:                                              ; preds = %127
  %139 = load ptr, ptr %3, align 8, !tbaa !22
  %140 = getelementptr inbounds nuw %struct.SSIMContext, ptr %139, i32 0, i32 17
  call void @av_freep(ptr noundef %140)
  call void @llvm.lifetime.start.p0(i64 4, ptr %8) #12
  store i32 0, ptr %8, align 4, !tbaa !37
  br label %141

141:                                              ; preds = %162, %138
  %142 = load i32, ptr %8, align 4, !tbaa !37
  %143 = load ptr, ptr %3, align 8, !tbaa !22
  %144 = getelementptr inbounds nuw %struct.SSIMContext, ptr %143, i32 0, i32 5
  %145 = load i32, ptr %144, align 4, !tbaa !47
  %146 = icmp slt i32 %142, %145
  br i1 %146, label %147, label %152

147:                                              ; preds = %141
  %148 = load ptr, ptr %3, align 8, !tbaa !22
  %149 = getelementptr inbounds nuw %struct.SSIMContext, ptr %148, i32 0, i32 15
  %150 = load ptr, ptr %149, align 8, !tbaa !50
  %151 = icmp ne ptr %150, null
  br label %152

152:                                              ; preds = %147, %141
  %153 = phi i1 [ false, %141 ], [ %151, %147 ]
  br i1 %153, label %155, label %154

154:                                              ; preds = %152
  call void @llvm.lifetime.end.p0(i64 4, ptr %8) #12
  br label %165

155:                                              ; preds = %152
  %156 = load ptr, ptr %3, align 8, !tbaa !22
  %157 = getelementptr inbounds nuw %struct.SSIMContext, ptr %156, i32 0, i32 15
  %158 = load ptr, ptr %157, align 8, !tbaa !50
  %159 = load i32, ptr %8, align 4, !tbaa !37
  %160 = sext i32 %159 to i64
  %161 = getelementptr inbounds ptr, ptr %158, i64 %160
  call void @av_freep(ptr noundef %161)
  br label %162

162:                                              ; preds = %155
  %163 = load i32, ptr %8, align 4, !tbaa !37
  %164 = add nsw i32 %163, 1
  store i32 %164, ptr %8, align 4, !tbaa !37
  br label %141, !llvm.loop !51

165:                                              ; preds = %154
  %166 = load ptr, ptr %3, align 8, !tbaa !22
  %167 = getelementptr inbounds nuw %struct.SSIMContext, ptr %166, i32 0, i32 15
  call void @av_freep(ptr noundef %167)
  call void @llvm.lifetime.end.p0(i64 8, ptr %3) #12
  ret void
}