; Function Attrs: cold nounwind optsize uwtable
define internal void @uninit(ptr noundef %0) #1 {
  %2 = alloca [256 x i8], align 16
  %3 = getelementptr inbounds nuw i8, ptr %0, i64 72
  %4 = load ptr, ptr %3, align 8, !tbaa !4
  %5 = getelementptr inbounds nuw i8, ptr %4, i64 136
  %6 = load i64, ptr %5, align 8, !tbaa !36
  %.not = icmp eq i64 %6, 0
  br i1 %.not, label %57, label %7

7:                                                ; preds = %1
  call void @llvm.lifetime.start.p0(i64 256, ptr nonnull %2) #14
  store i8 0, ptr %2, align 16, !tbaa !37
  %8 = getelementptr inbounds nuw i8, ptr %4, i64 120
  %9 = load i32, ptr %8, align 8, !tbaa !38
  %10 = icmp sgt i32 %9, 0
  br i1 %10, label %.lr.ph, label %._crit_edge

.lr.ph:                                           ; preds = %7
  %11 = getelementptr inbounds nuw i8, ptr %4, i64 272
  %12 = getelementptr inbounds nuw i8, ptr %4, i64 224
  %13 = getelementptr inbounds nuw i8, ptr %4, i64 184
  %14 = getelementptr inbounds nuw i8, ptr %4, i64 144
  br label %28

._crit_edge.loopexit:                             ; preds = %ssim_db.exit51
  %.pre = load i64, ptr %5, align 8, !tbaa !36
  br label %._crit_edge

._crit_edge:                                      ; preds = %._crit_edge.loopexit, %7
  %15 = phi i64 [ %.pre, %._crit_edge.loopexit ], [ %6, %7 ]
  %16 = getelementptr inbounds nuw i8, ptr %4, i64 176
  %17 = load double, ptr %16, align 8, !tbaa !39
  %18 = uitofp i64 %15 to double
  %19 = fdiv nsz double %17, %18
  %20 = fsub nsz double %18, %17
  %21 = call nsz double @llvm.fabs.f64(double %20)
  %22 = fcmp nsz ogt double %21, 1.000000e-09
  br i1 %22, label %23, label %ssim_db.exit

23:                                               ; preds = %._crit_edge
  %24 = fdiv nsz double %18, %20
  %25 = call nsz double @llvm.log10.f64(double %24)
  %26 = fmul nsz double %25, 1.000000e+01
  br label %ssim_db.exit

ssim_db.exit:                                     ; preds = %._crit_edge, %23
  %27 = phi nsz double [ %26, %23 ], [ 0x7FF0000000000000, %._crit_edge ]
  call void (ptr, i32, ptr, ...) @av_log(ptr noundef %0, i32 noundef 32, ptr noundef nonnull @.str.25, ptr noundef nonnull %2, double noundef %19, double noundef %27) #14
  call void @llvm.lifetime.end.p0(i64 256, ptr nonnull %2) #14
  br label %57

28:                                               ; preds = %.lr.ph, %ssim_db.exit51
  %indvars.iv = phi i64 [ 0, %.lr.ph ], [ %indvars.iv.next, %ssim_db.exit51 ]
  %29 = load i32, ptr %11, align 8, !tbaa !40
  %.not50 = icmp eq i32 %29, 0
  br i1 %.not50, label %34, label %30

30:                                               ; preds = %28
  %31 = getelementptr inbounds nuw [4 x i8], ptr %12, i64 0, i64 %indvars.iv
  %32 = load i8, ptr %31, align 1, !tbaa !37
  %33 = zext i8 %32 to i64
  br label %34

34:                                               ; preds = %28, %30
  %35 = phi i64 [ %33, %30 ], [ %indvars.iv, %28 ]
  %36 = getelementptr inbounds nuw [4 x i8], ptr %13, i64 0, i64 %indvars.iv
  %37 = load i8, ptr %36, align 1, !tbaa !37
  %38 = sext i8 %37 to i32
  %39 = and i64 %35, 4294967295
  %40 = getelementptr inbounds nuw [4 x double], ptr %14, i64 0, i64 %39
  %41 = load double, ptr %40, align 8, !tbaa !41
  %42 = load i64, ptr %5, align 8, !tbaa !36
  %43 = uitofp i64 %42 to double
  %44 = fdiv nsz double %41, %43
  %45 = fsub nsz double %43, %41
  %46 = call nsz double @llvm.fabs.f64(double %45)
  %47 = fcmp nsz ogt double %46, 1.000000e-09
  br i1 %47, label %48, label %ssim_db.exit51

48:                                               ; preds = %34
  %49 = fdiv nsz double %43, %45
  %50 = call nsz double @llvm.log10.f64(double %49)
  %51 = fmul nsz double %50, 1.000000e+01
  br label %ssim_db.exit51

ssim_db.exit51:                                   ; preds = %34, %48
  %52 = phi nsz double [ %51, %48 ], [ 0x7FF0000000000000, %34 ]
  %53 = call i64 (ptr, i64, ptr, ...) @av_strlcatf(ptr noundef nonnull %2, i64 noundef 256, ptr noundef nonnull @.str.24, i32 noundef %38, double noundef %44, double noundef %52) #14
  %indvars.iv.next = add nuw nsw i64 %indvars.iv, 1
  %54 = load i32, ptr %8, align 8, !tbaa !38
  %55 = sext i32 %54 to i64
  %56 = icmp slt i64 %indvars.iv.next, %55
  br i1 %56, label %28, label %._crit_edge.loopexit, !llvm.loop !42

57:                                               ; preds = %ssim_db.exit, %1
  %58 = getelementptr inbounds nuw i8, ptr %4, i64 8
  call void @ff_framesync_uninit(ptr noundef nonnull %58) #14
  %59 = getelementptr inbounds nuw i8, ptr %4, i64 104
  %60 = load ptr, ptr %59, align 8, !tbaa !33
  %.not46 = icmp eq ptr %60, null
  %61 = load ptr, ptr @stdout, align 8
  %.not47 = icmp eq ptr %60, %61
  %or.cond = select i1 %.not46, i1 true, i1 %.not47
  br i1 %or.cond, label %64, label %62

62:                                               ; preds = %57
  %63 = call i32 @fclose(ptr noundef nonnull %60)
  br label %64

64:                                               ; preds = %62, %57
  %65 = getelementptr inbounds nuw i8, ptr %4, i64 280
  %66 = getelementptr inbounds nuw i8, ptr %4, i64 124
  %67 = load i32, ptr %66, align 4, !tbaa !44
  %68 = icmp sgt i32 %67, 0
  br i1 %68, label %.lr.ph55, label %.critedge

.lr.ph55:                                         ; preds = %64, %73
  %indvars.iv61 = phi i64 [ %indvars.iv.next62, %73 ], [ 0, %64 ]
  %69 = load ptr, ptr %65, align 8, !tbaa !45
  %.not48 = icmp eq ptr %69, null
  br i1 %.not48, label %.critedge, label %73

.critedge:                                        ; preds = %.lr.ph55, %73, %64
  call void @av_freep(ptr noundef nonnull %65) #14
  %70 = getelementptr inbounds nuw i8, ptr %4, i64 264
  %71 = load i32, ptr %66, align 4, !tbaa !44
  %72 = icmp sgt i32 %71, 0
  br i1 %72, label %.lr.ph58, label %.critedge2

73:                                               ; preds = %.lr.ph55
  %74 = getelementptr inbounds nuw ptr, ptr %69, i64 %indvars.iv61
  call void @av_freep(ptr noundef nonnull %74) #14
  %indvars.iv.next62 = add nuw nsw i64 %indvars.iv61, 1
  %75 = load i32, ptr %66, align 4, !tbaa !44
  %76 = sext i32 %75 to i64
  %77 = icmp slt i64 %indvars.iv.next62, %76
  br i1 %77, label %.lr.ph55, label %.critedge, !llvm.loop !46

.lr.ph58:                                         ; preds = %.critedge, %79
  %indvars.iv64 = phi i64 [ %indvars.iv.next65, %79 ], [ 0, %.critedge ]
  %78 = load ptr, ptr %70, align 8, !tbaa !47
  %.not49 = icmp eq ptr %78, null
  br i1 %.not49, label %.critedge2, label %79

.critedge2:                                       ; preds = %.lr.ph58, %79, %.critedge
  call void @av_freep(ptr noundef nonnull %70) #14
  ret void

79:                                               ; preds = %.lr.ph58
  %80 = getelementptr inbounds nuw ptr, ptr %78, i64 %indvars.iv64
  call void @av_freep(ptr noundef nonnull %80) #14
  %indvars.iv.next65 = add nuw nsw i64 %indvars.iv64, 1
  %81 = load i32, ptr %66, align 4, !tbaa !44
  %82 = sext i32 %81 to i64
  %83 = icmp slt i64 %indvars.iv.next65, %82
  br i1 %83, label %.lr.ph58, label %.critedge2, !llvm.loop !48
}